target datalayout = "e-m:e-p270:32:32-p271:32:32-p272:64:64-i64:64-i128:128-f80:128-n8:16:32:64-S128"
target triple = "x86_64-pc-linux-gnu"

; Function Attrs: nounwind uwtable
define dso_local i32 @starts_with_mem(ptr noundef %0, i64 noundef %1, ptr noundef %2) #0 {
  %4 = alloca i32, align 4
  %5 = alloca ptr, align 8
  %6 = alloca i64, align 8
  %7 = alloca ptr, align 8
  %8 = alloca ptr, align 8
  %9 = alloca i32, align 4
  store ptr %0, ptr %5, align 8, !tbaa !4
  store i64 %1, ptr %6, align 8, !tbaa !12
  store ptr %2, ptr %7, align 8, !tbaa !4
  call void @llvm.lifetime.start.p0(i64 8, ptr %8) #11
  %10 = load ptr, ptr %5, align 8, !tbaa !4
  %11 = load i64, ptr %6, align 8, !tbaa !12
  %12 = getelementptr inbounds nuw i8, ptr %10, i64 %11
  store ptr %12, ptr %8, align 8, !tbaa !4
  br label %13

13:                                               ; preds = %33, %3
  %14 = load ptr, ptr %7, align 8, !tbaa !4
  %15 = load i8, ptr %14, align 1, !tbaa !9
  %16 = icmp ne i8 %15, 0
  br i1 %16, label %18, label %17

17:                                               ; preds = %13
  store i32 1, ptr %4, align 4
  store i32 1, ptr %9, align 4
  br label %38

18:                                               ; preds = %13
  %19 = load ptr, ptr %5, align 8, !tbaa !4
  %20 = load ptr, ptr %8, align 8, !tbaa !4
  %21 = icmp eq ptr %19, %20
  br i1 %21, label %30, label %22

22:                                               ; preds = %18
  %23 = load ptr, ptr %5, align 8, !tbaa !4
  %24 = load i8, ptr %23, align 1, !tbaa !9
  %25 = sext i8 %24 to i32
  %26 = load ptr, ptr %7, align 8, !tbaa !4
  %27 = load i8, ptr %26, align 1, !tbaa !9
  %28 = sext i8 %27 to i32
  %29 = icmp ne i32 %25, %28
  br i1 %29, label %30, label %31

30:                                               ; preds = %22, %18
  store i32 0, ptr %4, align 4
  store i32 1, ptr %9, align 4
  br label %38

31:                                               ; preds = %22
  br label %32

32:                                               ; preds = %31
  br label %33

33:                                               ; preds = %32
  %34 = load ptr, ptr %5, align 8, !tbaa !4
  %35 = getelementptr inbounds nuw i8, ptr %34, i32 1
  store ptr %35, ptr %5, align 8, !tbaa !4
  %36 = load ptr, ptr %7, align 8, !tbaa !4
  %37 = getelementptr inbounds nuw i8, ptr %36, i32 1
  store ptr %37, ptr %7, align 8, !tbaa !4
  br label %13

38:                                               ; preds = %30, %17
  call void @llvm.lifetime.end.p0(i64 8, ptr %8) #11
  %39 = load i32, ptr %4, align 4
  ret i32 %39
}