; Function Attrs: nofree norecurse nosync nounwind memory(argmem: read) uwtable
define dso_local range(i32 0, 2) i32 @starts_with_mem(ptr noundef readonly %0, i64 noundef %1, ptr noundef readonly captures(none) %2) local_unnamed_addr #0 {
  %4 = getelementptr inbounds nuw i8, ptr %0, i64 %1
  %5 = load i8, ptr %2, align 1, !tbaa !4
  %.not13 = icmp eq i8 %5, 0
  br i1 %.not13, label %._crit_edge, label %.lr.ph

.lr.ph:                                           ; preds = %3, %10
  %6 = phi i8 [ %13, %10 ], [ %5, %3 ]
  %.0915 = phi ptr [ %12, %10 ], [ %2, %3 ]
  %.01014 = phi ptr [ %11, %10 ], [ %0, %3 ]
  %7 = icmp eq ptr %.01014, %4
  br i1 %7, label %._crit_edge, label %8

8:                                                ; preds = %.lr.ph
  %9 = load i8, ptr %.01014, align 1, !tbaa !4
  %.not12 = icmp eq i8 %9, %6
  br i1 %.not12, label %10, label %._crit_edge

10:                                               ; preds = %8
  %11 = getelementptr inbounds nuw i8, ptr %.01014, i64 1
  %12 = getelementptr inbounds nuw i8, ptr %.0915, i64 1
  %13 = load i8, ptr %12, align 1, !tbaa !4
  %.not = icmp eq i8 %13, 0
  br i1 %.not, label %._crit_edge, label %.lr.ph

._crit_edge:                                      ; preds = %10, %8, %.lr.ph, %3
  %.0 = phi i32 [ 1, %3 ], [ 0, %.lr.ph ], [ 0, %8 ], [ 1, %10 ]
  ret i32 %.0
}